Sjasm Z80 Assembler v0.42c - www.xl2s.tk             [2021.01.07 - 17:39:12]

OLEDDEMO.ASM
Errors: 0

       1   00:0200                      ;************************************
       2   00:0200                      ;* Demo of Quazar's OLED Board
       3   00:0200                      ;* 
       4   00:0200                      ;* Prints "Zoggins" to the screen
       5   00:0200                      ;* and uses the buttons/leds on the 
       6   00:0200                      ;* Digital I/O board to do different 
       7   00:0200                      ;* things
       8   00:0200                      ;************************************
       9   00:0200                      
      10   00:0200  (00:0050)           OLEDPORT:	EQU		0x50		; OLED address
      11   00:0200  (00:0003)           INPORT:		EQU		0x03		; Digital I/O board's input address
      12   00:0200  (00:0003)           OUTPORT:	EQU		0x03		; Digital I/O board's output address
      13   00:0200                      
      14   00:0200                      			ORG		0x0200
      15   00:0200                      
      16   00:0200  CD FF 0A            INIT:		CALL	RESET
      17   00:0203  21 E1 02            			LD		HL, SEQUENCE
      18   00:0206  7E                  INITLOOP:	LD		A, (HL)
      19   00:0207  FE FF               			CP		0xFF
      20   00:0209  28 07               			JR		Z, CLEAR
      21   00:020B  CD 22 0B            			CALL	COMMAND
      22   00:020E  23                  			INC		HL
      23   00:020F  C3 06 02            			JP		INITLOOP
      24   00:0212  CD 56 0B            CLEAR:		CALL	CLEAROLED
      25   00:0215  CD 67 02            			CALL	SETWINDOW	; DRAW SOMETHING
      26   00:0218                      			
      27   00:0218  DB 03               TERMLOOP:	IN		A, (INPORT)
      28   00:021A  D3 03               			OUT		(OUTPORT), A
      29   00:021C  FE 01               			CP		0x01		; Button 1
      30   00:021E  28 1E               			JR		Z, INVERT	; Inverts Display
      31   00:0220  FE 02               			CP		0x02		; Button 2
      32   00:0222  28 1F               			JR		Z, NORMAL	; Un-inverts the Display
      33   00:0224  FE 04               			CP		0x04		; Button 3
      34   00:0226  28 39               			JR		Z, DR3		; Draw dragon
      35   00:0228  FE 08               			CP		0x08		; Button 4
      36   00:022A  28 30               			JR		Z, DR2		; Draw "here"
      37   00:022C  FE 10               			CP		0x10		; Button 5
      38   00:022E  28 27               			JR		Z, DR1		; Draw "was"
      39   00:0230  FE 20               			CP		0x20		; Button 6
      40   00:0232  28 1E               			JR		Z, DR		; Draw "ZOGGINS"
      41   00:0234  FE 40               			CP		0x40		; Button 7
      42   00:0236  28 15               			JR		Z, DIM		; Dims the Display
      43   00:0238  FE 80               			CP		0x80		; Button 8
      44   00:023A  28 0C               			JR		Z, FULL		; Un-Dims the Display
      45   00:023C  18 DA               			JR		TERMLOOP
      46   00:023E  CD B2 0B            INVERT:		CALL	INVERTEDDIS
      47   00:0241  18 D5               			JR		TERMLOOP	
      48   00:0243  CD AC 0B            NORMAL:		CALL	NORMALDIS
      49   00:0246  18 D0               			JR		TERMLOOP
      50   00:0248  CD 96 0B            FULL:		CALL	FULLDISPLAY
      51   00:024B  18 CB               			JR		TERMLOOP
      52   00:024D  CD 8B 0B            DIM:		CALL	DIMDISPLAY
      53   00:0250  18 C6               			JR		TERMLOOP
      54   00:0252  CD 9E 02            DR:			CALL	DRAWIMAGE
      55   00:0255  18 C1               			JR		TERMLOOP
      56   00:0257  CD A5 02            DR1:		CALL	DRAWIMAGE1
      57   00:025A  18 BC               			JR		TERMLOOP
      58   00:025C  CD AC 02            DR2:		CALL	DRAWIMAGE2
      59   00:025F  18 B7               			JR		TERMLOOP
      60   00:0261  CD B3 02            DR3:		CALL	DRAWIMAGE3
      61   00:0264  18 B2               			JR		TERMLOOP
      62   00:0266  C9                  			RET
      63   00:0267                      
      64   00:0267                      ; SETS THE WINDOW FOR THE ENTIRE SCREEN
      65   00:0267                      ; AND DISPLAYS THE DATA IN IMAGE
      66   00:0267  3E 20               SETWINDOW:	LD		A, 0x20
      67   00:0269  CD 22 0B            			CALL	COMMAND		; WINDOW COMMAND
      68   00:026C  3E 00               			LD		A, 0x00
      69   00:026E  CD 22 0B            			CALL	COMMAND		; HORIZONTAL WRAPPING
      70   00:0271                      
      71   00:0271  3E 21               			LD		A, 0x21
      72   00:0273  CD 22 0B            			CALL	COMMAND		; WINDOW COLUMNS
      73   00:0276  3E 04               			LD		A, 0x04
      74   00:0278  CD 22 0B            			CALL	COMMAND		; LEFT MOST COLUMN
      75   00:027B  3E 83               			LD		A, 0x83
      76   00:027D  CD 22 0B            			CALL	COMMAND		; RIGHT MOST COLUMN
      77   00:0280                      
      78   00:0280  3E 22               			LD		A, 0x22
      79   00:0282  CD 22 0B            			CALL	COMMAND		; WINDOW ROWS
      80   00:0285  3E 00               			LD		A, 0x00
      81   00:0287  CD 22 0B            			CALL	COMMAND		; TOP ROW
      82   00:028A  3E 03               			LD		A, 0x03
      83   00:028C  CD 22 0B            			CALL	COMMAND		; BOTTOM ROW
      84   00:028F                      
      85   00:028F  3E B0               			LD		A, 0xB0
      86   00:0291  CD 22 0B            			CALL	COMMAND		; SET POINTER TO START AT TOP ROW
      87   00:0294  3E 10               			LD		A, 0x10
      88   00:0296  CD 22 0B            			CALL	COMMAND		; SET START AT LEFT MOST COLUMN
      89   00:0299  3E 04               			LD		A, 0x04
      90   00:029B  CD 22 0B            			CALL	COMMAND		; BOTTOM ROW
      91   00:029E  21 FF 02            DRAWIMAGE:	LD		HL, IMAGE	; IMAGE DATA
      92   00:02A1  16 00               			LD		D, 0x00
      93   00:02A3  18 15               			JR		WINLOOP
      94   00:02A5  21 FF 04            DRAWIMAGE1:	LD		HL, IMAGE1	; IMAGE1 DATA
      95   00:02A8  16 00               			LD		D, 0x00
      96   00:02AA  18 0E               			JR		WINLOOP
      97   00:02AC  21 FF 06            DRAWIMAGE2:	LD		HL, IMAGE2	; IMAGE2 DATA
      98   00:02AF  16 00               			LD		D, 0x00
      99   00:02B1  18 07               			JR		WINLOOP
     100   00:02B3  21 FF 08            DRAWIMAGE3:	LD		HL, IMAGE3	; IMAGE3 DATA
     101   00:02B6  16 00               			LD		D, 0x00
     102   00:02B8  18 00               			JR		WINLOOP
     103   00:02BA  7E                  WINLOOP:	LD		A, (HL)
     104   00:02BB  CD 45 0B            			CALL	OLEDDATA
     105   00:02BE  23                  			INC		HL
     106   00:02BF  7E                  			LD		A, (HL)
     107   00:02C0  CD 45 0B            			CALL	OLEDDATA
     108   00:02C3  23                  			INC		HL
     109   00:02C4  15                  			DEC		D			; LOOP TO DRAW 512 BYTES
     110   00:02C5  20 F3               			JR		NZ, WINLOOP
     111   00:02C7  C9                  			RET
     112   00:02C8                      
     113   00:02C8                      ; THIS WAS A DEMO TO SHOW PIXEL PLACEMENT
     114   00:02C8  3E B0               PIXELROW:	LD		A, 0xB0
     115   00:02CA  CD 22 0B            			CALL	COMMAND
     116   00:02CD  3E 10               			LD		A, 0x10
     117   00:02CF  CD 22 0B            			CALL	COMMAND
     118   00:02D2  3E 04               			LD		A, 0x04
     119   00:02D4  CD 22 0B            			CALL	COMMAND
     120   00:02D7  AF                  			XOR		A
     121   00:02D8  CD 45 0B            ROWLOOP:	CALL	OLEDDATA
     122   00:02DB  3C                  			INC		A
     123   00:02DC  FE 80               			CP		0x80
     124   00:02DE  C8                  			RET		Z
     125   00:02DF  18 F7               			JR		ROWLOOP
     126   00:02E1                      
     127   00:02E1                      ; STARTUP SEQUENCE COMMANDS
     128   00:02E1  AE D5 A0 A8         SEQUENCE:	DB		0xAE, 0xD5, 0xA0, 0xA8
     129   00:02E5  1F D3 00 AD         			DB		0x1F, 0xD3, 0x00, 0xAD
     130   00:02E9  8E D8 05 A1         			DB		0x8E, 0xD8, 0x05, 0xA1
     131   00:02ED  C8 DA 12 91         			DB		0xC8, 0xDA, 0x12, 0x91
     132   00:02F1  3F 3F 3F 3F         			DB		0x3F, 0x3F, 0x3F, 0x3F
     133   00:02F5  81 80 D9 D2         			DB		0x81, 0x80, 0xD9, 0xD2
     134   00:02F9  DB 34 A6 A4         			DB		0xDB, 0x34, 0xA6, 0xA4
     135   00:02FD  AF                  			DB		0xAF
     136   00:02FE  FF                  			DB		0xFF	
     137   00:02FF                      
     138   00:02FF                      ; IMAGE = ZOGGINS
     139   00:02FF                      IMAGE:      DB 0x00, 0x00, 0x00, 0x00, 0x00, 0x00, 0x00, 0x00
     139   00:02FF  00 00 00 00 00 00 00 00 
     140   00:0307                      			DB 0x00, 0x00, 0x00, 0x00, 0x00, 0x00, 0x00, 0x00
     140   00:0307  00 00 00 00 00 00 00 00 
     141   00:030F                      			DB 0x00, 0x00, 0x00, 0x00, 0x00, 0x00, 0x00, 0x00
     141   00:030F  00 00 00 00 00 00 00 00 
     142   00:0317                      			DB 0x00, 0x00, 0x00, 0x00, 0x00, 0x00, 0x00, 0x00
     142   00:0317  00 00 00 00 00 00 00 00 
     143   00:031F                      			DB 0x00, 0x00, 0x00, 0x00, 0x00, 0x00, 0x00, 0x00
     143   00:031F  00 00 00 00 00 00 00 00 
     144   00:0327                      			DB 0x00, 0x00, 0x00, 0x00, 0x00, 0x00, 0x00, 0x00
     144   00:0327  00 00 00 00 00 00 00 00 
     145   00:032F                      			DB 0x00, 0x00, 0x00, 0x00, 0x00, 0x00, 0x00, 0x00
     145   00:032F  00 00 00 00 00 00 00 00 
     146   00:0337                      			DB 0x00, 0x00, 0x00, 0x00, 0x00, 0x00, 0x00, 0x00
     146   00:0337  00 00 00 00 00 00 00 00 
     147   00:033F                      			DB 0x00, 0x00, 0x00, 0x00, 0x00, 0x00, 0x00, 0x00
     147   00:033F  00 00 00 00 00 00 00 00 
     148   00:0347                      			DB 0xC0, 0xC0, 0x00, 0x00, 0x00, 0x00, 0x00, 0x00
     148   00:0347  C0 C0 00 00 00 00 00 00 
     149   00:034F                      			DB 0x00, 0x00, 0x00, 0x00, 0x00, 0x00, 0x00, 0x00
     149   00:034F  00 00 00 00 00 00 00 00 
     150   00:0357                      			DB 0x00, 0x00, 0x00, 0x00, 0x00, 0x00, 0x00, 0x00
     150   00:0357  00 00 00 00 00 00 00 00 
     151   00:035F                      			DB 0x00, 0x00, 0x00, 0x00, 0x00, 0x00, 0x00, 0x00
     151   00:035F  00 00 00 00 00 00 00 00 
     152   00:0367                      			DB 0x00, 0x00, 0x00, 0x00, 0x00, 0x00, 0x00, 0x00
     152   00:0367  00 00 00 00 00 00 00 00 
     153   00:036F                      			DB 0x00, 0x00, 0x00, 0x00, 0x00, 0x00, 0x00, 0x00
     153   00:036F  00 00 00 00 00 00 00 00 
     154   00:0377                      			DB 0x00, 0x00, 0x00, 0x00, 0x00, 0x00, 0x00, 0x00
     154   00:0377  00 00 00 00 00 00 00 00 
     155   00:037F                      
     156   00:037F                      			DB 0x00, 0x00, 0x00, 0x00, 0x00, 0x00, 0x00, 0x00
     156   00:037F  00 00 00 00 00 00 00 00 
     157   00:0387                      			DB 0x00, 0x00, 0x00, 0x00, 0x00, 0x00, 0x00, 0x00
     157   00:0387  00 00 00 00 00 00 00 00 
     158   00:038F                      			DB 0x00, 0x00, 0x00, 0x03, 0x03, 0x03, 0x03, 0xC3
     158   00:038F  00 00 00 03 03 03 03 C3 
     159   00:0397                      			DB 0xE3, 0x3B, 0x1F, 0x07, 0x00, 0x00, 0xE0, 0xF0
     159   00:0397  E3 3B 1F 07 00 00 E0 F0 
     160   00:039F                      			DB 0x38, 0x1C, 0x0C, 0x0C, 0x0C, 0x1C, 0x38, 0xF0
     160   00:039F  38 1C 0C 0C 0C 1C 38 F0 
     161   00:03A7                      			DB 0xE0, 0x00, 0x00, 0xC0, 0xF0, 0x38, 0x1C, 0x0C
     161   00:03A7  E0 00 00 C0 F0 38 1C 0C 
     162   00:03AF                      			DB 0x0C, 0x0C, 0x0C, 0x18, 0xFC, 0xFC, 0x00, 0x00
     162   00:03AF  0C 0C 0C 18 FC FC 00 00 
     163   00:03B7                      			DB 0x00, 0xC0, 0xF0, 0x38, 0x1C, 0x0C, 0x0C, 0x0C
     163   00:03B7  00 C0 F0 38 1C 0C 0C 0C 
     164   00:03BF                      			DB 0x0C, 0x18, 0xFC, 0xFC, 0x00, 0x00, 0x00, 0x00
     164   00:03BF  0C 18 FC FC 00 00 00 00 
     165   00:03C7                      			DB 0xFC, 0xFC, 0x00, 0x00, 0x00, 0xFC, 0xFC, 0x18
     165   00:03C7  FC FC 00 00 00 FC FC 18 
     166   00:03CF                      			DB 0x08, 0x0C, 0x0C, 0x0C, 0x1C, 0xF8, 0xF0, 0x00
     166   00:03CF  08 0C 0C 0C 1C F8 F0 00 
     167   00:03D7                      			DB 0x00, 0x00, 0x70, 0xF8, 0xDC, 0x8C, 0x8C, 0x8C
     167   00:03D7  00 00 70 F8 DC 8C 8C 8C 
     168   00:03DF                      			DB 0x0C, 0x38, 0x30, 0x00, 0x00, 0x00, 0x00, 0x00
     168   00:03DF  0C 38 30 00 00 00 00 00 
     169   00:03E7                      			DB 0x00, 0x00, 0x00, 0x00, 0x00, 0x00, 0x00, 0x00
     169   00:03E7  00 00 00 00 00 00 00 00 
     170   00:03EF                      			DB 0x00, 0x00, 0x00, 0x00, 0x00, 0x00, 0x00, 0x00
     170   00:03EF  00 00 00 00 00 00 00 00 
     171   00:03F7                      			DB 0x00, 0x00, 0x00, 0x00, 0x00, 0x00, 0x00, 0x00
     171   00:03F7  00 00 00 00 00 00 00 00 
     172   00:03FF                      
     173   00:03FF                      			DB 0x00, 0x00, 0x00, 0x00, 0x00, 0x00, 0x00, 0x00
     173   00:03FF  00 00 00 00 00 00 00 00 
     174   00:0407                      			DB 0x00, 0x00, 0x00, 0x00, 0x00, 0x00, 0x00, 0x00
     174   00:0407  00 00 00 00 00 00 00 00 
     175   00:040F                      			DB 0x00, 0x00, 0x00, 0x70, 0x78, 0x6E, 0x67, 0x61
     175   00:040F  00 00 00 70 78 6E 67 61 
     176   00:0417                      			DB 0x60, 0x60, 0x60, 0x60, 0x40, 0x00, 0x0F, 0x1F
     176   00:0417  60 60 60 60 40 00 0F 1F 
     177   00:041F                      			DB 0x38, 0x70, 0x60, 0x60, 0x60, 0x70, 0x38, 0x1F
     177   00:041F  38 70 60 60 60 70 38 1F 
     178   00:0427                      			DB 0x0F, 0x00, 0x00, 0x07, 0x1F, 0x38, 0x70, 0x60
     178   00:0427  0F 00 00 07 1F 38 70 60 
     179   00:042F                      			DB 0x60, 0x60, 0x60, 0x30, 0xFF, 0xFF, 0x00, 0x00
     179   00:042F  60 60 60 30 FF FF 00 00 
     180   00:0437                      			DB 0x00, 0x07, 0x1F, 0x38, 0x70, 0x60, 0x60, 0x60
     180   00:0437  00 07 1F 38 70 60 60 60 
     181   00:043F                      			DB 0x60, 0x30, 0xFF, 0xFF, 0x00, 0x00, 0x00, 0x00
     181   00:043F  60 30 FF FF 00 00 00 00 
     182   00:0447                      			DB 0x7F, 0x7F, 0x00, 0x00, 0x00, 0x7F, 0x7F, 0x00
     182   00:0447  7F 7F 00 00 00 7F 7F 00 
     183   00:044F                      			DB 0x00, 0x00, 0x00, 0x00, 0x00, 0x7F, 0x7F, 0x00
     183   00:044F  00 00 00 00 00 7F 7F 00 
     184   00:0457                      			DB 0x00, 0x00, 0x18, 0x38, 0x71, 0x61, 0x61, 0x63
     184   00:0457  00 00 18 38 71 61 61 63 
     185   00:045F                      			DB 0x63, 0x33, 0x3F, 0x1E, 0x00, 0x00, 0x00, 0x00
     185   00:045F  63 33 3F 1E 00 00 00 00 
     186   00:0467                      			DB 0x00, 0x00, 0x00, 0x00, 0x00, 0x00, 0x00, 0x00
     186   00:0467  00 00 00 00 00 00 00 00 
     187   00:046F                      			DB 0x00, 0x00, 0x00, 0x00, 0x00, 0x00, 0x00, 0x00
     187   00:046F  00 00 00 00 00 00 00 00 
     188   00:0477                      			DB 0x00, 0x00, 0x00, 0x00, 0x00, 0x00, 0x00, 0x00
     188   00:0477  00 00 00 00 00 00 00 00 
     189   00:047F                      
     190   00:047F                      			DB 0x00, 0x00, 0x00, 0x00, 0x00, 0x00, 0x00, 0x00
     190   00:047F  00 00 00 00 00 00 00 00 
     191   00:0487                      			DB 0x00, 0x00, 0x00, 0x00, 0x00, 0x00, 0x00, 0x00
     191   00:0487  00 00 00 00 00 00 00 00 
     192   00:048F                      			DB 0x00, 0x00, 0x00, 0x00, 0x00, 0x00, 0x00, 0x00
     192   00:048F  00 00 00 00 00 00 00 00 
     193   00:0497                      			DB 0x00, 0x00, 0x00, 0x00, 0x00, 0x00, 0x00, 0x00
     193   00:0497  00 00 00 00 00 00 00 00 
     194   00:049F                      			DB 0x00, 0x00, 0x00, 0x00, 0x00, 0x00, 0x00, 0x00
     194   00:049F  00 00 00 00 00 00 00 00 
     195   00:04A7                      			DB 0x00, 0x00, 0x00, 0x00, 0x07, 0x07, 0x0C, 0x0C
     195   00:04A7  00 00 00 00 07 07 0C 0C 
     196   00:04AF                      			DB 0x0C, 0x0C, 0x0C, 0x06, 0x07, 0x03, 0x00, 0x00
     196   00:04AF  0C 0C 0C 06 07 03 00 00 
     197   00:04B7                      			DB 0x00, 0x00, 0x07, 0x07, 0x0C, 0x0C, 0x0C, 0x0C
     197   00:04B7  00 00 07 07 0C 0C 0C 0C 
     198   00:04BF                      			DB 0x0C, 0x06, 0x07, 0x03, 0x00, 0x00, 0x00, 0x00
     198   00:04BF  0C 06 07 03 00 00 00 00 
     199   00:04C7                      			DB 0x00, 0x00, 0x00, 0x00, 0x00, 0x00, 0x00, 0x00
     199   00:04C7  00 00 00 00 00 00 00 00 
     200   00:04CF                      			DB 0x00, 0x00, 0x00, 0x00, 0x00, 0x00, 0x00, 0x00
     200   00:04CF  00 00 00 00 00 00 00 00 
     201   00:04D7                      			DB 0x00, 0x00, 0x00, 0x00, 0x00, 0x00, 0x00, 0x00
     201   00:04D7  00 00 00 00 00 00 00 00 
     202   00:04DF                      			DB 0x00, 0x00, 0x00, 0x00, 0x00, 0x00, 0x00, 0x00
     202   00:04DF  00 00 00 00 00 00 00 00 
     203   00:04E7                      			DB 0x00, 0x00, 0x00, 0x00, 0x00, 0x00, 0x00, 0x00
     203   00:04E7  00 00 00 00 00 00 00 00 
     204   00:04EF                      			DB 0x00, 0x00, 0x00, 0x00, 0x00, 0x00, 0x00, 0x00
     204   00:04EF  00 00 00 00 00 00 00 00 
     205   00:04F7                      			DB 0x00, 0x00, 0x00, 0x00, 0x00, 0x00, 0x00, 0x00
     205   00:04F7  00 00 00 00 00 00 00 00 
     206   00:04FF                      
     207   00:04FF                      ; IMAGE1 = was
     208   00:04FF                      IMAGE1:		DB 0x00, 0x00, 0x00, 0x00, 0x00, 0x00, 0x00, 0x00
     208   00:04FF  00 00 00 00 00 00 00 00 
     209   00:0507                      			DB 0x00, 0x00, 0x00, 0x00, 0x00, 0x00, 0x00, 0x00
     209   00:0507  00 00 00 00 00 00 00 00 
     210   00:050F                      			DB 0x00, 0x00, 0x00, 0x00, 0x00, 0x00, 0x00, 0x00
     210   00:050F  00 00 00 00 00 00 00 00 
     211   00:0517                      			DB 0x00, 0x00, 0x00, 0x00, 0x00, 0x00, 0x00, 0x00
     211   00:0517  00 00 00 00 00 00 00 00 
     212   00:051F                      			DB 0x00, 0x00, 0x00, 0x00, 0x00, 0x00, 0x00, 0x00
     212   00:051F  00 00 00 00 00 00 00 00 
     213   00:0527                      			DB 0x00, 0x00, 0x00, 0x00, 0x00, 0x00, 0x00, 0x00
     213   00:0527  00 00 00 00 00 00 00 00 
     214   00:052F                      			DB 0x00, 0x00, 0x00, 0x00, 0x00, 0x00, 0x00, 0x00
     214   00:052F  00 00 00 00 00 00 00 00 
     215   00:0537                      			DB 0x00, 0x00, 0x00, 0x00, 0x00, 0x00, 0x00, 0x00
     215   00:0537  00 00 00 00 00 00 00 00 
     216   00:053F                      			DB 0x00, 0x00, 0x00, 0x00, 0x00, 0x00, 0x00, 0x00
     216   00:053F  00 00 00 00 00 00 00 00 
     217   00:0547                      			DB 0x00, 0x00, 0x00, 0x00, 0x00, 0x00, 0x00, 0x00
     217   00:0547  00 00 00 00 00 00 00 00 
     218   00:054F                      			DB 0x00, 0x00, 0x00, 0x00, 0x00, 0x00, 0x00, 0x00
     218   00:054F  00 00 00 00 00 00 00 00 
     219   00:0557                      			DB 0x00, 0x00, 0x00, 0x00, 0x00, 0x00, 0x00, 0x00
     219   00:0557  00 00 00 00 00 00 00 00 
     220   00:055F                      			DB 0x00, 0x00, 0x00, 0x00, 0x00, 0x00, 0x00, 0x00
     220   00:055F  00 00 00 00 00 00 00 00 
     221   00:0567                      			DB 0x00, 0x00, 0x00, 0x00, 0x00, 0x00, 0x00, 0x00
     221   00:0567  00 00 00 00 00 00 00 00 
     222   00:056F                      			DB 0x00, 0x00, 0x00, 0x00, 0x00, 0x00, 0x00, 0x00
     222   00:056F  00 00 00 00 00 00 00 00 
     223   00:0577                      			DB 0x00, 0x00, 0x00, 0x00, 0x00, 0x00, 0x00, 0x00
     223   00:0577  00 00 00 00 00 00 00 00 
     224   00:057F                      
     225   00:057F                      			DB 0x00, 0x00, 0x00, 0x00, 0x00, 0x00, 0x00, 0x00
     225   00:057F  00 00 00 00 00 00 00 00 
     226   00:0587                      			DB 0x00, 0x00, 0x00, 0x00, 0x00, 0x00, 0x00, 0x00
     226   00:0587  00 00 00 00 00 00 00 00 
     227   00:058F                      			DB 0x00, 0x00, 0x00, 0x00, 0x00, 0x00, 0x00, 0x00
     227   00:058F  00 00 00 00 00 00 00 00 
     228   00:0597                      			DB 0x00, 0x00, 0x00, 0x00, 0x00, 0x00, 0x00, 0x00
     228   00:0597  00 00 00 00 00 00 00 00 
     229   00:059F                      			DB 0x08, 0xF8, 0xF8, 0x00, 0x00, 0x00, 0x00, 0x80
     229   00:059F  08 F8 F8 00 00 00 00 80 
     230   00:05A7                      			DB 0xF8, 0x78, 0xF8, 0x80, 0x00, 0x00, 0x00, 0x80
     230   00:05A7  F8 78 F8 80 00 00 00 80 
     231   00:05AF                      			DB 0xF0, 0x78, 0x08, 0x00, 0x00, 0x60, 0x70, 0x30
     231   00:05AF  F0 78 08 00 00 60 70 30 
     232   00:05B7                      			DB 0x18, 0x18, 0x18, 0x18, 0x18, 0x38, 0xF0, 0xE0
     232   00:05B7  18 18 18 18 18 38 F0 E0 
     233   00:05BF                      			DB 0x00, 0x00, 0x00, 0x00, 0xE0, 0xF0, 0x38, 0x18
     233   00:05BF  00 00 00 00 E0 F0 38 18 
     234   00:05C7                      			DB 0x18, 0x18, 0x18, 0x30, 0x70, 0x60, 0x00, 0x00
     234   00:05C7  18 18 18 30 70 60 00 00 
     235   00:05CF                      			DB 0x00, 0x00, 0x00, 0x00, 0x00, 0x00, 0x00, 0x00
     235   00:05CF  00 00 00 00 00 00 00 00 
     236   00:05D7                      			DB 0x00, 0x00, 0x00, 0x00, 0x00, 0x00, 0x00, 0x00
     236   00:05D7  00 00 00 00 00 00 00 00 
     237   00:05DF                      			DB 0x00, 0x00, 0x00, 0x00, 0x00, 0x00, 0x00, 0x00
     237   00:05DF  00 00 00 00 00 00 00 00 
     238   00:05E7                      			DB 0x00, 0x00, 0x00, 0x00, 0x00, 0x00, 0x00, 0x00
     238   00:05E7  00 00 00 00 00 00 00 00 
     239   00:05EF                      			DB 0x00, 0x00, 0x00, 0x00, 0x00, 0x00, 0x00, 0x00
     239   00:05EF  00 00 00 00 00 00 00 00 
     240   00:05F7                      			DB 0x00, 0x00, 0x00, 0x00, 0x00, 0x00, 0x00, 0x00
     240   00:05F7  00 00 00 00 00 00 00 00 
     241   00:05FF                      
     242   00:05FF                      			DB 0x00, 0x00, 0x00, 0x00, 0x00, 0x00, 0x00, 0x00
     242   00:05FF  00 00 00 00 00 00 00 00 
     243   00:0607                      			DB 0x00, 0x00, 0x00, 0x00, 0x00, 0x00, 0x00, 0x00
     243   00:0607  00 00 00 00 00 00 00 00 
     244   00:060F                      			DB 0x00, 0x00, 0x00, 0x00, 0x00, 0x00, 0x00, 0x00
     244   00:060F  00 00 00 00 00 00 00 00 
     245   00:0617                      			DB 0x00, 0x00, 0x00, 0x00, 0x00, 0x00, 0x00, 0x00
     245   00:0617  00 00 00 00 00 00 00 00 
     246   00:061F                      			DB 0x00, 0x00, 0x0F, 0x7F, 0xF0, 0xC0, 0xF8, 0x3F
     246   00:061F  00 00 0F 7F F0 C0 F8 3F 
     247   00:0627                      			DB 0x03, 0x00, 0x07, 0x7F, 0xF8, 0xC0, 0xF8, 0x1F
     247   00:0627  03 00 07 7F F8 C0 F8 1F 
     248   00:062F                      			DB 0x03, 0x00, 0x00, 0x00, 0xF0, 0xFC, 0xDC, 0x0E
     248   00:062F  03 00 00 00 F0 FC DC 0E 
     249   00:0637                      			DB 0x06, 0x06, 0x06, 0x86, 0x83, 0xE3, 0xFF, 0xFF
     249   00:0637  06 06 06 86 83 E3 FF FF 
     250   00:063F                      			DB 0x00, 0x00, 0x00, 0x20, 0xE3, 0xE3, 0x87, 0x06
     250   00:063F  00 00 00 20 E3 E3 87 06 
     251   00:0647                      			DB 0x06, 0x0E, 0x0E, 0x8C, 0xDC, 0xF8, 0x70, 0x00
     251   00:0647  06 0E 0E 8C DC F8 70 00 
     252   00:064F                      			DB 0x00, 0x00, 0x00, 0x00, 0x00, 0x00, 0x00, 0x00
     252   00:064F  00 00 00 00 00 00 00 00 
     253   00:0657                      			DB 0x00, 0x00, 0x00, 0x00, 0x00, 0x00, 0x00, 0x00
     253   00:0657  00 00 00 00 00 00 00 00 
     254   00:065F                      			DB 0x00, 0x00, 0x00, 0x00, 0x00, 0x00, 0x00, 0x00
     254   00:065F  00 00 00 00 00 00 00 00 
     255   00:0667                      			DB 0x00, 0x00, 0x00, 0x00, 0x00, 0x00, 0x00, 0x00
     255   00:0667  00 00 00 00 00 00 00 00 
     256   00:066F                      			DB 0x00, 0x00, 0x00, 0x00, 0x00, 0x00, 0x00, 0x00
     256   00:066F  00 00 00 00 00 00 00 00 
     257   00:0677                      			DB 0x00, 0x00, 0x00, 0x00, 0x00, 0x00, 0x00, 0x00
     257   00:0677  00 00 00 00 00 00 00 00 
     258   00:067F                      
     259   00:067F                      			DB 0x00, 0x00, 0x00, 0x00, 0x00, 0x00, 0x00, 0x00
     259   00:067F  00 00 00 00 00 00 00 00 
     260   00:0687                      			DB 0x00, 0x00, 0x00, 0x00, 0x00, 0x00, 0x00, 0x00
     260   00:0687  00 00 00 00 00 00 00 00 
     261   00:068F                      			DB 0x00, 0x00, 0x00, 0x00, 0x00, 0x00, 0x00, 0x00
     261   00:068F  00 00 00 00 00 00 00 00 
     262   00:0697                      			DB 0x00, 0x00, 0x00, 0x00, 0x00, 0x00, 0x00, 0x00
     262   00:0697  00 00 00 00 00 00 00 00 
     263   00:069F                      			DB 0x00, 0x00, 0x00, 0x00, 0x03, 0x03, 0x03, 0x00
     263   00:069F  00 00 00 00 03 03 03 00 
     264   00:06A7                      			DB 0x00, 0x00, 0x00, 0x00, 0x03, 0x03, 0x01, 0x00
     264   00:06A7  00 00 00 00 03 03 01 00 
     265   00:06AF                      			DB 0x00, 0x00, 0x00, 0x00, 0x00, 0x01, 0x03, 0x03
     265   00:06AF  00 00 00 00 00 01 03 03 
     266   00:06B7                      			DB 0x03, 0x03, 0x03, 0x01, 0x01, 0x00, 0x03, 0x03
     266   00:06B7  03 03 03 01 01 00 03 03 
     267   00:06BF                      			DB 0x02, 0x00, 0x00, 0x00, 0x00, 0x01, 0x03, 0x03
     267   00:06BF  02 00 00 00 00 01 03 03 
     268   00:06C7                      			DB 0x03, 0x03, 0x03, 0x03, 0x01, 0x01, 0x00, 0x00
     268   00:06C7  03 03 03 03 01 01 00 00 
     269   00:06CF                      			DB 0x00, 0x00, 0x00, 0x00, 0x00, 0x00, 0x00, 0x00
     269   00:06CF  00 00 00 00 00 00 00 00 
     270   00:06D7                      			DB 0x00, 0x00, 0x00, 0x00, 0x00, 0x00, 0x00, 0x00
     270   00:06D7  00 00 00 00 00 00 00 00 
     271   00:06DF                      			DB 0x00, 0x00, 0x00, 0x00, 0x00, 0x00, 0x00, 0x00
     271   00:06DF  00 00 00 00 00 00 00 00 
     272   00:06E7                      			DB 0x00, 0x00, 0x00, 0x00, 0x00, 0x00, 0x00, 0x00
     272   00:06E7  00 00 00 00 00 00 00 00 
     273   00:06EF                      			DB 0x00, 0x00, 0x00, 0x00, 0x00, 0x00, 0x00, 0x00
     273   00:06EF  00 00 00 00 00 00 00 00 
     274   00:06F7                      			DB 0x00, 0x00, 0x00, 0x00, 0x00, 0x00, 0x00, 0x00
     274   00:06F7  00 00 00 00 00 00 00 00 
     275   00:06FF                      
     276   00:06FF                      ; IMAGE2 = here
     277   00:06FF                      IMAGE2:		DB 0x00, 0x00, 0x00, 0x00, 0x00, 0x00, 0x00, 0x00
     277   00:06FF  00 00 00 00 00 00 00 00 
     278   00:0707                      			DB 0x00, 0x00, 0x00, 0x00, 0x00, 0x00, 0x00, 0x00
     278   00:0707  00 00 00 00 00 00 00 00 
     279   00:070F                      			DB 0x00, 0x00, 0x00, 0x00, 0x00, 0x00, 0x00, 0x00
     279   00:070F  00 00 00 00 00 00 00 00 
     280   00:0717                      			DB 0x00, 0x00, 0x00, 0x00, 0x00, 0x00, 0x00, 0x00
     280   00:0717  00 00 00 00 00 00 00 00 
     281   00:071F                      			DB 0x00, 0x00, 0xC0, 0xC0, 0x00, 0x00, 0x00, 0x00
     281   00:071F  00 00 C0 C0 00 00 00 00 
     282   00:0727                      			DB 0x00, 0x00, 0x00, 0x00, 0x00, 0x00, 0x00, 0x00
     282   00:0727  00 00 00 00 00 00 00 00 
     283   00:072F                      			DB 0x00, 0x00, 0x00, 0x00, 0x00, 0x00, 0x00, 0x00
     283   00:072F  00 00 00 00 00 00 00 00 
     284   00:0737                      			DB 0x00, 0x00, 0x00, 0x00, 0x00, 0x00, 0x00, 0x00
     284   00:0737  00 00 00 00 00 00 00 00 
     285   00:073F                      			DB 0x00, 0x00, 0x00, 0x00, 0x00, 0x00, 0x00, 0x00
     285   00:073F  00 00 00 00 00 00 00 00 
     286   00:0747                      			DB 0x00, 0x00, 0x00, 0x00, 0x00, 0x00, 0x00, 0x00
     286   00:0747  00 00 00 00 00 00 00 00 
     287   00:074F                      			DB 0x00, 0x00, 0x00, 0x00, 0x00, 0x00, 0x00, 0x00
     287   00:074F  00 00 00 00 00 00 00 00 
     288   00:0757                      			DB 0x00, 0x00, 0x00, 0x00, 0x00, 0x00, 0x00, 0x00
     288   00:0757  00 00 00 00 00 00 00 00 
     289   00:075F                      			DB 0x00, 0x00, 0x00, 0x00, 0x00, 0x00, 0x00, 0x00
     289   00:075F  00 00 00 00 00 00 00 00 
     290   00:0767                      			DB 0x00, 0x00, 0x00, 0x00, 0x00, 0x00, 0x00, 0x00
     290   00:0767  00 00 00 00 00 00 00 00 
     291   00:076F                      			DB 0x00, 0x00, 0x00, 0x00, 0x00, 0x00, 0x00, 0x00
     291   00:076F  00 00 00 00 00 00 00 00 
     292   00:0777                      			DB 0x00, 0x00, 0x00, 0x00, 0x00, 0x00, 0x00, 0x00
     292   00:0777  00 00 00 00 00 00 00 00 
     293   00:077F                      
     294   00:077F                      			DB 0x00, 0x00, 0x00, 0x00, 0x00, 0x00, 0x00, 0x00
     294   00:077F  00 00 00 00 00 00 00 00 
     295   00:0787                      			DB 0x00, 0x00, 0x00, 0x00, 0x00, 0x00, 0x00, 0x00
     295   00:0787  00 00 00 00 00 00 00 00 
     296   00:078F                      			DB 0x00, 0x00, 0x00, 0x00, 0x00, 0x00, 0x00, 0x00
     296   00:078F  00 00 00 00 00 00 00 00 
     297   00:0797                      			DB 0x00, 0x00, 0x00, 0x00, 0x00, 0x00, 0x00, 0x00
     297   00:0797  00 00 00 00 00 00 00 00 
     298   00:079F                      			DB 0x00, 0x00, 0xFF, 0xFF, 0x70, 0x30, 0x18, 0x18
     298   00:079F  00 00 FF FF 70 30 18 18 
     299   00:07A7                      			DB 0x18, 0x18, 0x38, 0xF0, 0xE0, 0x00, 0x00, 0x00
     299   00:07A7  18 18 38 F0 E0 00 00 00 
     300   00:07AF                      			DB 0x80, 0xE0, 0x70, 0x30, 0x18, 0x18, 0x18, 0x18
     300   00:07AF  80 E0 70 30 18 18 18 18 
     301   00:07B7                      			DB 0x18, 0x30, 0x70, 0xE0, 0x80, 0x00, 0x00, 0x00
     301   00:07B7  18 30 70 E0 80 00 00 00 
     302   00:07BF                      			DB 0xF8, 0xF8, 0x70, 0x18, 0x18, 0x18, 0x18, 0x00
     302   00:07BF  F8 F8 70 18 18 18 18 00 
     303   00:07C7                      			DB 0x80, 0xE0, 0x70, 0x30, 0x18, 0x18, 0x18, 0x18
     303   00:07C7  80 E0 70 30 18 18 18 18 
     304   00:07CF                      			DB 0x18, 0x30, 0x70, 0xE0, 0x80, 0x00, 0x00, 0x00
     304   00:07CF  18 30 70 E0 80 00 00 00 
     305   00:07D7                      			DB 0x00, 0x00, 0x00, 0x00, 0x00, 0x00, 0x00, 0x00
     305   00:07D7  00 00 00 00 00 00 00 00 
     306   00:07DF                      			DB 0x00, 0x00, 0x00, 0x00, 0x00, 0x00, 0x00, 0x00
     306   00:07DF  00 00 00 00 00 00 00 00 
     307   00:07E7                      			DB 0x00, 0x00, 0x00, 0x00, 0x00, 0x00, 0x00, 0x00
     307   00:07E7  00 00 00 00 00 00 00 00 
     308   00:07EF                      			DB 0x00, 0x00, 0x00, 0x00, 0x00, 0x00, 0x00, 0x00
     308   00:07EF  00 00 00 00 00 00 00 00 
     309   00:07F7                      			DB 0x00, 0x00, 0x00, 0x00, 0x00, 0x00, 0x00, 0x00
     309   00:07F7  00 00 00 00 00 00 00 00 
     310   00:07FF                      
     311   00:07FF                      			DB 0x00, 0x00, 0x00, 0x00, 0x00, 0x00, 0x00, 0x00
     311   00:07FF  00 00 00 00 00 00 00 00 
     312   00:0807                      			DB 0x00, 0x00, 0x00, 0x00, 0x00, 0x00, 0x00, 0x00
     312   00:0807  00 00 00 00 00 00 00 00 
     313   00:080F                      			DB 0x00, 0x00, 0x00, 0x00, 0x00, 0x00, 0x00, 0x00
     313   00:080F  00 00 00 00 00 00 00 00 
     314   00:0817                      			DB 0x00, 0x00, 0x00, 0x00, 0x00, 0x00, 0x00, 0x00
     314   00:0817  00 00 00 00 00 00 00 00 
     315   00:081F                      			DB 0x00, 0x00, 0xFF, 0xFF, 0x00, 0x00, 0x00, 0x00
     315   00:081F  00 00 FF FF 00 00 00 00 
     316   00:0827                      			DB 0x00, 0x00, 0x00, 0xFF, 0xFF, 0x00, 0x00, 0x00
     316   00:0827  00 00 00 FF FF 00 00 00 
     317   00:082F                      			DB 0x3F, 0xFF, 0xE6, 0x86, 0x86, 0x06, 0x06, 0x06
     317   00:082F  3F FF E6 86 86 06 06 06 
     318   00:0837                      			DB 0x06, 0x86, 0x86, 0xC7, 0x47, 0x00, 0x00, 0x00
     318   00:0837  06 86 86 C7 47 00 00 00 
     319   00:083F                      			DB 0xFF, 0xFF, 0x00, 0x00, 0x00, 0x00, 0x00, 0x00
     319   00:083F  FF FF 00 00 00 00 00 00 
     320   00:0847                      			DB 0x3F, 0xFF, 0xE6, 0x86, 0x86, 0x06, 0x06, 0x06
     320   00:0847  3F FF E6 86 86 06 06 06 
     321   00:084F                      			DB 0x06, 0x86, 0x86, 0xC7, 0x47, 0x00, 0x00, 0x00
     321   00:084F  06 86 86 C7 47 00 00 00 
     322   00:0857                      			DB 0x00, 0x00, 0x00, 0x00, 0x00, 0x00, 0x00, 0x00
     322   00:0857  00 00 00 00 00 00 00 00 
     323   00:085F                      			DB 0x00, 0x00, 0x00, 0x00, 0x00, 0x00, 0x00, 0x00
     323   00:085F  00 00 00 00 00 00 00 00 
     324   00:0867                      			DB 0x00, 0x00, 0x00, 0x00, 0x00, 0x00, 0x00, 0x00
     324   00:0867  00 00 00 00 00 00 00 00 
     325   00:086F                      			DB 0x00, 0x00, 0x00, 0x00, 0x00, 0x00, 0x00, 0x00
     325   00:086F  00 00 00 00 00 00 00 00 
     326   00:0877                      			DB 0x00, 0x00, 0x00, 0x00, 0x00, 0x00, 0x00, 0x00
     326   00:0877  00 00 00 00 00 00 00 00 
     327   00:087F                      
     328   00:087F                      			DB 0x00, 0x00, 0x00, 0x00, 0x00, 0x00, 0x00, 0x00
     328   00:087F  00 00 00 00 00 00 00 00 
     329   00:0887                      			DB 0x00, 0x00, 0x00, 0x00, 0x00, 0x00, 0x00, 0x00
     329   00:0887  00 00 00 00 00 00 00 00 
     330   00:088F                      			DB 0x00, 0x00, 0x00, 0x00, 0x00, 0x00, 0x00, 0x00
     330   00:088F  00 00 00 00 00 00 00 00 
     331   00:0897                      			DB 0x00, 0x00, 0x00, 0x00, 0x00, 0x00, 0x00, 0x00
     331   00:0897  00 00 00 00 00 00 00 00 
     332   00:089F                      			DB 0x00, 0x00, 0x03, 0x03, 0x00, 0x00, 0x00, 0x00
     332   00:089F  00 00 03 03 00 00 00 00 
     333   00:08A7                      			DB 0x00, 0x00, 0x00, 0x03, 0x03, 0x00, 0x00, 0x00
     333   00:08A7  00 00 00 03 03 00 00 00 
     334   00:08AF                      			DB 0x00, 0x00, 0x01, 0x01, 0x03, 0x03, 0x03, 0x03
     334   00:08AF  00 00 01 01 03 03 03 03 
     335   00:08B7                      			DB 0x03, 0x03, 0x01, 0x00, 0x00, 0x00, 0x00, 0x00
     335   00:08B7  03 03 01 00 00 00 00 00 
     336   00:08BF                      			DB 0x03, 0x03, 0x00, 0x00, 0x00, 0x00, 0x00, 0x00
     336   00:08BF  03 03 00 00 00 00 00 00 
     337   00:08C7                      			DB 0x00, 0x00, 0x01, 0x01, 0x03, 0x03, 0x03, 0x03
     337   00:08C7  00 00 01 01 03 03 03 03 
     338   00:08CF                      			DB 0x03, 0x03, 0x01, 0x00, 0x00, 0x00, 0x00, 0x00
     338   00:08CF  03 03 01 00 00 00 00 00 
     339   00:08D7                      			DB 0x00, 0x00, 0x00, 0x00, 0x00, 0x00, 0x00, 0x00
     339   00:08D7  00 00 00 00 00 00 00 00 
     340   00:08DF                      			DB 0x00, 0x00, 0x00, 0x00, 0x00, 0x00, 0x00, 0x00
     340   00:08DF  00 00 00 00 00 00 00 00 
     341   00:08E7                      			DB 0x00, 0x00, 0x00, 0x00, 0x00, 0x00, 0x00, 0x00
     341   00:08E7  00 00 00 00 00 00 00 00 
     342   00:08EF                      			DB 0x00, 0x00, 0x00, 0x00, 0x00, 0x00, 0x00, 0x00
     342   00:08EF  00 00 00 00 00 00 00 00 
     343   00:08F7                      			DB 0x00, 0x00, 0x00, 0x00, 0x00, 0x00, 0x00, 0x00
     343   00:08F7  00 00 00 00 00 00 00 00 
     344   00:08FF                      
     345   00:08FF                      ; IMAGE3 = dragon eyes
     346   00:08FF                      IMAGE3:		DB 0x00, 0x00, 0x00, 0x00, 0x00, 0x00, 0x00, 0x00
     346   00:08FF  00 00 00 00 00 00 00 00 
     347   00:0907                      			DB 0x00, 0x00, 0x00, 0x00, 0x00, 0x00, 0x00, 0x7F
     347   00:0907  00 00 00 00 00 00 00 7F 
     348   00:090F                      			DB 0xFF, 0xFE, 0xF1, 0x83, 0x07, 0x0C, 0x00, 0x00
     348   00:090F  FF FE F1 83 07 0C 00 00 
     349   00:0917                      			DB 0x00, 0x00, 0xFF, 0xF0, 0x18, 0x05, 0x03, 0x86
     349   00:0917  00 00 FF F0 18 05 03 86 
     350   00:091F                      			DB 0x8C, 0xF8, 0xC0, 0x00, 0x00, 0x00, 0x00, 0x00
     350   00:091F  8C F8 C0 00 00 00 00 00 
     351   00:0927                      			DB 0x00, 0x00, 0x00, 0x00, 0x00, 0x00, 0x00, 0x00
     351   00:0927  00 00 00 00 00 00 00 00 
     352   00:092F                      			DB 0x00, 0x00, 0x00, 0x00, 0x00, 0x00, 0x00, 0x00
     352   00:092F  00 00 00 00 00 00 00 00 
     353   00:0937                      			DB 0x00, 0x00, 0x00, 0x00, 0x80, 0xC0, 0xC0, 0x60
     353   00:0937  00 00 00 00 80 C0 C0 60 
     354   00:093F                      			DB 0x30, 0x30, 0x38, 0x98, 0x8C, 0x8C, 0x86, 0x0E
     354   00:093F  30 30 38 98 8C 8C 86 0E 
     355   00:0947                      			DB 0x3B, 0x73, 0xC1, 0x81, 0x01, 0x01, 0xF8, 0x3F
     355   00:0947  3B 73 C1 81 01 01 F8 3F 
     356   00:094F                      			DB 0x00, 0x00, 0x00, 0x00, 0x00, 0x00, 0x00, 0x00
     356   00:094F  00 00 00 00 00 00 00 00 
     357   00:0957                      			DB 0x00, 0x00, 0x80, 0xC0, 0xF0, 0xFC, 0x3F, 0x03
     357   00:0957  00 00 80 C0 F0 FC 3F 03 
     358   00:095F                      			DB 0x00, 0x00, 0x00, 0x00, 0x00, 0x80, 0xC0, 0xE0
     358   00:095F  00 00 00 00 00 80 C0 E0 
     359   00:0967                      			DB 0xF8, 0xFC, 0xFE, 0x7F, 0x0F, 0x03, 0x01, 0x00
     359   00:0967  F8 FC FE 7F 0F 03 01 00 
     360   00:096F                      			DB 0x00, 0xC0, 0xE0, 0xF0, 0x78, 0x3C, 0x1C, 0x00
     360   00:096F  00 C0 E0 F0 78 3C 1C 00 
     361   00:0977                      			DB 0x00, 0x00, 0x00, 0x00, 0x00, 0x00, 0x00, 0x00
     361   00:0977  00 00 00 00 00 00 00 00 
     362   00:097F                      
     363   00:097F                      			DB 0x00, 0x00, 0x00, 0x00, 0x00, 0x00, 0x00, 0x00
     363   00:097F  00 00 00 00 00 00 00 00 
     364   00:0987                      			DB 0x00, 0x00, 0x00, 0x00, 0x00, 0x00, 0x00, 0x00
     364   00:0987  00 00 00 00 00 00 00 00 
     365   00:098F                      			DB 0x07, 0x9F, 0xFF, 0x7F, 0xFE, 0xF8, 0xF0, 0xC0
     365   00:098F  07 9F FF 7F FE F8 F0 C0 
     366   00:0997                      			DB 0x80, 0x00, 0x3F, 0xFC, 0xC0, 0x80, 0x1F, 0x3F
     366   00:0997  80 00 3F FC C0 80 1F 3F 
     367   00:099F                      			DB 0x1F, 0x0F, 0xFF, 0x00, 0x00, 0x00, 0x00, 0x00
     367   00:099F  1F 0F FF 00 00 00 00 00 
     368   00:09A7                      			DB 0x00, 0x00, 0x00, 0x00, 0x00, 0x00, 0x00, 0x00
     368   00:09A7  00 00 00 00 00 00 00 00 
     369   00:09AF                      			DB 0x00, 0x00, 0x00, 0x00, 0x00, 0xC0, 0x60, 0x38
     369   00:09AF  00 00 00 00 00 C0 60 38 
     370   00:09B7                      			DB 0x0C, 0x06, 0x03, 0x01, 0xFD, 0x83, 0x00, 0x00
     370   00:09B7  0C 06 03 01 FD 83 00 00 
     371   00:09BF                      			DB 0x00, 0x00, 0x06, 0x7F, 0xFF, 0xFF, 0xFF, 0xFE
     371   00:09BF  00 00 06 7F FF FF FF FE 
     372   00:09C7                      			DB 0x70, 0x00, 0x00, 0x03, 0x0E, 0xF8, 0xFF, 0x00
     372   00:09C7  70 00 00 03 0E F8 FF 00 
     373   00:09CF                      			DB 0x00, 0x00, 0x00, 0x00, 0x00, 0x60, 0x70, 0x78
     373   00:09CF  00 00 00 00 00 60 70 78 
     374   00:09D7                      			DB 0x7C, 0x7E, 0x7F, 0x7F, 0x3F, 0x38, 0x38, 0x18
     374   00:09D7  7C 7E 7F 7F 3F 38 38 18 
     375   00:09DF                      			DB 0xCC, 0xFC, 0xFC, 0xFE, 0xFF, 0xFF, 0x7F, 0x3F
     375   00:09DF  CC FC FC FE FF FF 7F 3F 
     376   00:09E7                      			DB 0x0F, 0x03, 0x03, 0xFF, 0x00, 0x00, 0x00, 0x00
     376   00:09E7  0F 03 03 FF 00 00 00 00 
     377   00:09EF                      			DB 0x00, 0xFF, 0xFF, 0xFE, 0x3C, 0x70, 0xE0, 0x00
     377   00:09EF  00 FF FF FE 3C 70 E0 00 
     378   00:09F7                      			DB 0x00, 0x00, 0x00, 0x00, 0x00, 0x00, 0x00, 0x00
     378   00:09F7  00 00 00 00 00 00 00 00 
     379   00:09FF                      
     380   00:09FF                      			DB 0x00, 0x00, 0x00, 0x00, 0x00, 0x00, 0x00, 0x00
     380   00:09FF  00 00 00 00 00 00 00 00 
     381   00:0A07                      			DB 0x00, 0x00, 0x00, 0x88, 0xC4, 0xC2, 0xE2, 0xF1
     381   00:0A07  00 00 00 88 C4 C2 E2 F1 
     382   00:0A0F                      			DB 0x79, 0x3C, 0x1C, 0x9E, 0xFF, 0xFF, 0x7F, 0x3F
     382   00:0A0F  79 3C 1C 9E FF FF 7F 3F 
     383   00:0A17                      			DB 0x0F, 0x01, 0x00, 0x00, 0x01, 0x01, 0x03, 0x02
     383   00:0A17  0F 01 00 00 01 01 03 02 
     384   00:0A1F                      			DB 0x02, 0x03, 0x01, 0x00, 0x00, 0x00, 0x00, 0x00
     384   00:0A1F  02 03 01 00 00 00 00 00 
     385   00:0A27                      			DB 0x00, 0x00, 0x00, 0x00, 0x00, 0x00, 0x00, 0x00
     385   00:0A27  00 00 00 00 00 00 00 00 
     386   00:0A2F                      			DB 0x00, 0x00, 0x00, 0x00, 0x00, 0x03, 0x0C, 0x18
     386   00:0A2F  00 00 00 00 00 03 0C 18 
     387   00:0A37                      			DB 0x30, 0x20, 0x40, 0xC0, 0x81, 0x87, 0x8C, 0x90
     387   00:0A37  30 20 40 C0 81 87 8C 90 
     388   00:0A3F                      			DB 0x20, 0x20, 0xC0, 0xC0, 0x80, 0x81, 0x81, 0xC1
     388   00:0A3F  20 20 C0 C0 80 81 81 C1 
     389   00:0A47                      			DB 0xC0, 0x60, 0x70, 0x3C, 0x1F, 0x07, 0x00, 0x00
     389   00:0A47  C0 60 70 3C 1F 07 00 00 
     390   00:0A4F                      			DB 0x00, 0x00, 0x00, 0x00, 0x00, 0x00, 0x00, 0x00
     390   00:0A4F  00 00 00 00 00 00 00 00 
     391   00:0A57                      			DB 0x00, 0x00, 0x80, 0xC0, 0xE0, 0xF0, 0xFC, 0xFF
     391   00:0A57  00 00 80 C0 E0 F0 FC FF 
     392   00:0A5F                      			DB 0x7F, 0x3F, 0x1F, 0x07, 0x03, 0x01, 0x00, 0x00
     392   00:0A5F  7F 3F 1F 07 03 01 00 00 
     393   00:0A67                      			DB 0x00, 0x00, 0x00, 0xFF, 0xF8, 0x00, 0x00, 0x00
     393   00:0A67  00 00 00 FF F8 00 00 00 
     394   00:0A6F                      			DB 0xFC, 0xFF, 0xFF, 0xFF, 0xFC, 0x00, 0x00, 0x00
     394   00:0A6F  FC FF FF FF FC 00 00 00 
     395   00:0A77                      			DB 0x00, 0x00, 0x00, 0x00, 0x00, 0x00, 0x00, 0x00
     395   00:0A77  00 00 00 00 00 00 00 00 
     396   00:0A7F                      
     397   00:0A7F                      			DB 0x00, 0x00, 0x00, 0x00, 0x00, 0x00, 0x00, 0x18
     397   00:0A7F  00 00 00 00 00 00 00 18 
     398   00:0A87                      			DB 0x0C, 0x06, 0x01, 0x00, 0x00, 0x00, 0xC0, 0xF0
     398   00:0A87  0C 06 01 00 00 00 C0 F0 
     399   00:0A8F                      			DB 0x38, 0x1C, 0x0E, 0x07, 0x03, 0xE0, 0xC0, 0x00
     399   00:0A8F  38 1C 0E 07 03 E0 C0 00 
     400   00:0A97                      			DB 0x00, 0x00, 0x00, 0x00, 0x00, 0x00, 0x00, 0x00
     400   00:0A97  00 00 00 00 00 00 00 00 
     401   00:0A9F                      			DB 0x00, 0x00, 0x00, 0x00, 0x00, 0x00, 0x00, 0x00
     401   00:0A9F  00 00 00 00 00 00 00 00 
     402   00:0AA7                      			DB 0x00, 0x00, 0x00, 0x00, 0x00, 0x00, 0x00, 0x00
     402   00:0AA7  00 00 00 00 00 00 00 00 
     403   00:0AAF                      			DB 0x00, 0x00, 0x00, 0x00, 0x00, 0x00, 0x00, 0x00
     403   00:0AAF  00 00 00 00 00 00 00 00 
     404   00:0AB7                      			DB 0x00, 0x00, 0x00, 0x00, 0x00, 0x00, 0x00, 0x01
     404   00:0AB7  00 00 00 00 00 00 00 01 
     405   00:0ABF                      			DB 0x01, 0x01, 0x01, 0x01, 0x01, 0x01, 0x00, 0x00
     405   00:0ABF  01 01 01 01 01 01 00 00 
     406   00:0AC7                      			DB 0x00, 0x00, 0x00, 0x00, 0x00, 0x30, 0x30, 0x30
     406   00:0AC7  00 00 00 00 00 30 30 30 
     407   00:0ACF                      			DB 0x20, 0x30, 0x30, 0x38, 0x38, 0x3C, 0x9C, 0xDE
     407   00:0ACF  20 30 30 38 38 3C 9C DE 
     408   00:0AD7                      			DB 0xFF, 0x7F, 0x1F, 0x0F, 0x83, 0xE3, 0x7F, 0x00
     408   00:0AD7  FF 7F 1F 0F 83 E3 7F 00 
     409   00:0ADF                      			DB 0x00, 0x00, 0x00, 0x00, 0x00, 0x00, 0x00, 0x00
     409   00:0ADF  00 00 00 00 00 00 00 00 
     410   00:0AE7                      			DB 0x00, 0x00, 0xFC, 0xFF, 0x07, 0x00, 0xC0, 0xFC
     410   00:0AE7  00 00 FC FF 07 00 C0 FC 
     411   00:0AEF                      			DB 0xFF, 0xFF, 0xFF, 0xFF, 0xFF, 0x00, 0x00, 0x00
     411   00:0AEF  FF FF FF FF FF 00 00 00 
     412   00:0AF7                      			DB 0x00, 0x00, 0x00, 0x00, 0x00, 0x00, 0x00, 0x00
     412   00:0AF7  00 00 00 00 00 00 00 00 
     413   00:0AFF                      
     414   00:0AFF  0E 50               RESET:		LD		C, OLEDPORT	; BASE I/O ADDRESS
     415   00:0B01  06 06               			LD		B, 0x06		; RESET HIGH, /CS HIGH
     416   00:0B03  ED 79               			OUT		(C),A		; OUTPUT BYTE TO OLED INTERFACE
     417   00:0B05                      								; (VALUE OF A IRRELEVANT)
     418   00:0B05  00                  			NOP					; DELAY
     419   00:0B06  00                  			NOP
     420   00:0B07  00                  			NOP
     421   00:0B08  00                  			NOP
     422   00:0B09  CB 90               			RES		2,B			; RESET LOW
     423   00:0B0B  ED 79               			OUT		(C), A		; OUTPUT BYTE TO OLED INTERFACE
     424   00:0B0D  00                  			NOP					; LONG DELAY
     425   00:0B0E  00                  			NOP
     426   00:0B0F  00                  			NOP
     427   00:0B10  00                  			NOP
     428   00:0B11  00                  			NOP
     429   00:0B12  00                  			NOP
     430   00:0B13  00                  			NOP
     431   00:0B14  00                  			NOP
     432   00:0B15  00                  			NOP
     433   00:0B16  00                  			NOP
     434   00:0B17  00                  			NOP
     435   00:0B18  00                  			NOP
     436   00:0B19  00                  			NOP
     437   00:0B1A  00                  			NOP
     438   00:0B1B  00                  			NOP
     439   00:0B1C  00                  			NOP
     440   00:0B1D  00                  			NOP
     441   00:0B1E  00                  			NOP
     442   00:0B1F  00                  			NOP
     443   00:0B20  00                  			NOP
     444   00:0B21  C9                  			RET
     445   00:0B22                      
     446   00:0B22                      ; ENTER WITH:  A = COMMAND VALUE
     447   00:0B22  0E 50               COMMAND:	LD		C,OLEDPORT	; BASE I/O ADDRESS
     448   00:0B24  06 00               			LD		B,0x00		; RESET LOW, /CS LOW, /COMMAND LOW
     449   00:0B26  ED 79               			OUT		(C),A		; OUTPUT BYTE TO OLED INTERFACE
     450   00:0B28                      								; AS A COMMAND BYTE
     451   00:0B28  00                  			NOP					; DELAY
     452   00:0B29  00                  			NOP
     453   00:0B2A  00                  			NOP
     454   00:0B2B  00                  			NOP
     455   00:0B2C  CB C8               			SET		1,B			; /CS HIGH
     456   00:0B2E  ED 79               			OUT		(C),A		; OUTPUT BYTE TO OLED INTERFACE
     457   00:0B30  00                  			NOP					; LONG DELAY
     458   00:0B31  00                  			NOP
     459   00:0B32  00                  			NOP
     460   00:0B33  00                  			NOP
     461   00:0B34  00                  			NOP
     462   00:0B35  00                  			NOP
     463   00:0B36  00                  			NOP
     464   00:0B37  00                  			NOP
     465   00:0B38  00                  			NOP
     466   00:0B39  00                  			NOP
     467   00:0B3A  00                  			NOP
     468   00:0B3B  00                  			NOP
     469   00:0B3C  00                  			NOP
     470   00:0B3D  00                  			NOP
     471   00:0B3E  00                  			NOP
     472   00:0B3F  00                  			NOP
     473   00:0B40  00                  			NOP
     474   00:0B41  00                  			NOP
     475   00:0B42  00                  			NOP
     476   00:0B43  00                  			NOP
     477   00:0B44  C9                  			RET
     478   00:0B45                      
     479   00:0B45                      ; ENTER WITH:  A = GRAPHIC BYTE TO DISPLAY MEMORY
     480   00:0B45  0E 50               OLEDDATA:	LD		C,OLEDPORT	; BASE I/O ADDRESS
     481   00:0B47  06 01               			LD		B, 0x01		; RESET LOW, /CS LOW, /COMMAND HIGH
     482   00:0B49  ED 79               			OUT		(C),A		; OUTPUT BYTE TO OLED INTERFACE
     483   00:0B4B                      								; AS A DATA BYTE
     484   00:0B4B  00                  			NOP					; DELAY
     485   00:0B4C  00                  			NOP
     486   00:0B4D  00                  			NOP
     487   00:0B4E  00                  			NOP
     488   00:0B4F  CB C8               			SET		1, B		; /CS HIGH
     489   00:0B51  ED 79               			OUT		(C),A		; OUTPUT BYTE TO OLED INTERFACE
     490   00:0B53  00                  			NOP					; SHORT DELAY
     491   00:0B54  00                  			NOP
     492   00:0B55  C9                  			RET
     493   00:0B56                      
     494   00:0B56  3E B0               CLEAROLED:	LD		A, 0xB0
     495   00:0B58  CD 22 0B            			CALL	COMMAND		; SELECT TOP ROW
     496   00:0B5B  CD 77 0B            			CALL	CLEARROW
     497   00:0B5E  3E B1               			LD		A, 0xB1
     498   00:0B60  CD 22 0B            			CALL	COMMAND		; SELECT SECOND ROW
     499   00:0B63  CD 77 0B            			CALL	CLEARROW
     500   00:0B66  3E B2               			LD		A, 0xB2
     501   00:0B68  CD 22 0B            			CALL	COMMAND		; SELECT THIRD ROW
     502   00:0B6B  CD 77 0B            			CALL	CLEARROW
     503   00:0B6E  3E B3               			LD		A, 0xB3		
     504   00:0B70  CD 22 0B            			CALL	COMMAND		; SELECT BOTTOM ROW
     505   00:0B73  CD 77 0B            			CALL	CLEARROW
     506   00:0B76  C9                  			RET
     507   00:0B77                      
     508   00:0B77  3E 10               CLEARROW:	LD		A, 0x10		
     509   00:0B79  CD 22 0B            			CALL	COMMAND		; SELECT COLUMN COMMANDS
     510   00:0B7C  3E 04               			LD		A, 0x04
     511   00:0B7E  CD 22 0B            			CALL	COMMAND		; LEFT MOST COLUMN
     512   00:0B81  AF                  			XOR		A			; A = 0
     513   00:0B82  16 80               			LD		D, 0x80		; COUNTER TO WRITE 128 TIMES
     514   00:0B84  CD 45 0B            CLEARLOOP:	CALL	OLEDDATA	; WRITE TO DISPLAY RAM
     515   00:0B87  15                  			DEC		D			
     516   00:0B88  20 FA               			JR		NZ, CLEARLOOP	; DECREASE COUNTER AND LOOP
     517   00:0B8A  C9                  			RET
     518   00:0B8B                      
     519   00:0B8B  3E 81               DIMDISPLAY:	LD		A, 0x81		; CONTRAST COMMAND
     520   00:0B8D  CD 22 0B            			CALL	COMMAND	
     521   00:0B90  3E 00               			LD		A, 0x00		; LOWEST BRIGHTNESS
     522   00:0B92  CD 22 0B            			CALL	COMMAND	
     523   00:0B95  C9                  			RET
     524   00:0B96                      
     525   00:0B96                      FULLDISPLAY:	
     526   00:0B96  3E 81               			LD		A, 0x81		; CONTRAST COMMAND
     527   00:0B98  CD 22 0B            			CALL	COMMAND	
     528   00:0B9B  3E 80               			LD		A, 0x80		; HIGHEST BRIGHTNESS
     529   00:0B9D  CD 22 0B            			CALL	COMMAND	
     530   00:0BA0  C9                  			RET
     531   00:0BA1                      
     532   00:0BA1                      ; ENTER WITH:  A = BRIGHTNESS (Variable from 0x00 to 0x80)
     533   00:0BA1                      SETDISPLAY:
     534   00:0BA1  57                  			LD		D, A
     535   00:0BA2  3E 81               			LD		A, 0x81		; CONTRAST COMMAND
     536   00:0BA4  CD 22 0B            			CALL	COMMAND	
     537   00:0BA7  7A                  			LD		A, D		; SET BRIGHTNESS
     538   00:0BA8  CD 22 0B            			CALL	COMMAND	
     539   00:0BAB  C9                  			RET
     540   00:0BAC                      
     541   00:0BAC  3E A6               NORMALDIS:	LD		A, 0xA6
     542   00:0BAE  CD 22 0B            			CALL	COMMAND		; NORMAL DISPLAY MODE
     543   00:0BB1  C9                  			RET
     544   00:0BB2                      
     545   00:0BB2                      INVERTEDDIS:	
     546   00:0BB2  3E A7               			LD		A, 0xA7
     547   00:0BB4  CD 22 0B            			CALL	COMMAND		; INVERTED DISPLAY MODE
     548   00:0BB7  C9                  			RET

    LABELS
-------------------------------------------------
00:00000050   OLEDPORT
00:00000003   INPORT
00:00000003   OUTPORT
00:00000200 X INIT
00:00000206   INITLOOP
00:00000212   CLEAR
00:00000218   TERMLOOP
00:0000023E   INVERT
00:00000243   NORMAL
00:00000248   FULL
00:0000024D   DIM
00:00000252   DR
00:00000257   DR1
00:0000025C   DR2
00:00000261   DR3
00:00000267   SETWINDOW
00:0000029E   DRAWIMAGE
00:000002A5   DRAWIMAGE1
00:000002AC   DRAWIMAGE2
00:000002B3   DRAWIMAGE3
00:000002BA   WINLOOP
00:000002C8 X PIXELROW
00:000002D8   ROWLOOP
00:000002E1   SEQUENCE
00:000002FF   IMAGE
00:000004FF   IMAGE1
00:000006FF   IMAGE2
00:000008FF   IMAGE3
00:00000AFF   RESET
00:00000B22   COMMAND
00:00000B45   OLEDDATA
00:00000B56   CLEAROLED
00:00000B77   CLEARROW
00:00000B84   CLEARLOOP
00:00000B8B   DIMDISPLAY
00:00000B96   FULLDISPLAY
00:00000BA1 X SETDISPLAY
00:00000BAC   NORMALDIS
00:00000BB2   INVERTEDDIS


 Output: OLEDDEMO.out
-------------------------------------------------

 Page: 00
  Org: 00000200  Size: *  Used: 000009B8

   Address   Length Align   Label
   00000200    2488         INIT
